; Function Attrs: nounwind sspstrong uwtable
define dso_local ptr @grabbag__replaygain_store_to_vorbiscomment(ptr noundef %0, float noundef %1, float noundef %2, float noundef %3, float noundef %4) local_unnamed_addr #0 {
  %6 = tail call i32 @FLAC__metadata_object_vorbiscomment_remove_entries_matching(ptr noundef %0, ptr noundef nonnull @.str) #14
  %7 = icmp slt i32 %6, 0
  br i1 %7, label %grabbag__replaygain_store_to_vorbiscomment_reference.exit.thread, label %8

8:                                                ; preds = %5
  %9 = load float, ptr @ReplayGainReferenceLoudness, align 4, !tbaa !13
  %10 = tail call fastcc i32 @append_tag_(ptr noundef %0, ptr noundef nonnull @.str.9, ptr noundef nonnull @.str, float noundef %9)
  %.not.i = icmp eq i32 %10, 0
  br i1 %.not.i, label %grabbag__replaygain_store_to_vorbiscomment_reference.exit.thread, label %grabbag__replaygain_store_to_vorbiscomment_reference.exit

grabbag__replaygain_store_to_vorbiscomment_reference.exit: ; preds = %8
  %11 = tail call i32 @FLAC__metadata_object_vorbiscomment_remove_entries_matching(ptr noundef %0, ptr noundef nonnull @.str.1) #14
  %12 = icmp slt i32 %11, 0
  br i1 %12, label %grabbag__replaygain_store_to_vorbiscomment_reference.exit.thread, label %13

13:                                               ; preds = %grabbag__replaygain_store_to_vorbiscomment_reference.exit
  %14 = tail call i32 @FLAC__metadata_object_vorbiscomment_remove_entries_matching(ptr noundef %0, ptr noundef nonnull @.str.2) #14
  %15 = icmp slt i32 %14, 0
  br i1 %15, label %grabbag__replaygain_store_to_vorbiscomment_reference.exit.thread, label %16

16:                                               ; preds = %13
  %17 = tail call fastcc i32 @append_tag_(ptr noundef %0, ptr noundef nonnull @.str.10, ptr noundef nonnull @.str.1, float noundef %3)
  %.not.i16 = icmp eq i32 %17, 0
  br i1 %.not.i16, label %grabbag__replaygain_store_to_vorbiscomment_reference.exit.thread, label %18

18:                                               ; preds = %16
  %19 = tail call fastcc i32 @append_tag_(ptr noundef %0, ptr noundef nonnull @.str.11, ptr noundef nonnull @.str.2, float noundef %4)
  %.not7.i = icmp eq i32 %19, 0
  br i1 %.not7.i, label %grabbag__replaygain_store_to_vorbiscomment_reference.exit.thread, label %grabbag__replaygain_store_to_vorbiscomment_title.exit

grabbag__replaygain_store_to_vorbiscomment_title.exit: ; preds = %18
  %20 = tail call i32 @FLAC__metadata_object_vorbiscomment_remove_entries_matching(ptr noundef %0, ptr noundef nonnull @.str.3) #14
  %21 = icmp slt i32 %20, 0
  br i1 %21, label %grabbag__replaygain_store_to_vorbiscomment_reference.exit.thread, label %22

22:                                               ; preds = %grabbag__replaygain_store_to_vorbiscomment_title.exit
  %23 = tail call i32 @FLAC__metadata_object_vorbiscomment_remove_entries_matching(ptr noundef %0, ptr noundef nonnull @.str.4) #14
  %24 = icmp slt i32 %23, 0
  br i1 %24, label %grabbag__replaygain_store_to_vorbiscomment_reference.exit.thread, label %25

25:                                               ; preds = %22
  %26 = tail call fastcc i32 @append_tag_(ptr noundef %0, ptr noundef nonnull @.str.10, ptr noundef nonnull @.str.3, float noundef %1)
  %.not.i18 = icmp eq i32 %26, 0
  br i1 %.not.i18, label %grabbag__replaygain_store_to_vorbiscomment_reference.exit.thread, label %27

27:                                               ; preds = %25
  %28 = tail call fastcc i32 @append_tag_(ptr noundef %0, ptr noundef nonnull @.str.11, ptr noundef nonnull @.str.4, float noundef %2)
  %.not7.i19 = icmp eq i32 %28, 0
  %spec.select.i20 = select i1 %.not7.i19, ptr @.str.5, ptr null
  br label %grabbag__replaygain_store_to_vorbiscomment_reference.exit.thread

grabbag__replaygain_store_to_vorbiscomment_reference.exit.thread: ; preds = %27, %25, %22, %grabbag__replaygain_store_to_vorbiscomment_title.exit, %18, %16, %grabbag__replaygain_store_to_vorbiscomment_reference.exit, %13, %8, %5
  %.0 = phi ptr [ @.str.5, %5 ], [ @.str.5, %8 ], [ @.str.5, %13 ], [ @.str.5, %grabbag__replaygain_store_to_vorbiscomment_reference.exit ], [ @.str.5, %16 ], [ @.str.5, %18 ], [ @.str.5, %22 ], [ @.str.5, %grabbag__replaygain_store_to_vorbiscomment_title.exit ], [ @.str.5, %25 ], [ %spec.select.i20, %27 ]
  ret ptr %.0
}